; Function Attrs: mustprogress uwtable
define hidden noundef zeroext i1 @_ZNK3sls12bv_valuation7set_addERNS_5bvectERKS1_S4_(ptr noundef nonnull readonly align 8 captures(none) dereferenceable(184) %0, ptr noundef nonnull readonly align 8 captures(none) dereferenceable(20) %1, ptr noundef nonnull readonly align 8 captures(none) dereferenceable(20) %2, ptr noundef nonnull readonly align 8 captures(none) dereferenceable(20) %3) local_unnamed_addr #3 align 2 {
  %5 = alloca i32, align 4
  %6 = alloca %class.mpn_manager, align 1
  call void @llvm.lifetime.start.p0(i64 4, ptr nonnull %5) #29
  call void @llvm.lifetime.start.p0(i64 1, ptr nonnull %6) #29
  %7 = load ptr, ptr %2, align 8, !tbaa !14
  %8 = getelementptr inbounds nuw i8, ptr %0, i64 156
  %9 = load i32, ptr %8, align 4, !tbaa !68
  %10 = load ptr, ptr %3, align 8, !tbaa !14
  %11 = load ptr, ptr %1, align 8, !tbaa !14
  %12 = add i32 %9, 1
  %13 = call noundef zeroext i1 @_ZNK11mpn_manager3addEPKjjS1_jPjjS2_(ptr noundef nonnull align 1 dereferenceable(1) %6, ptr noundef %7, i32 noundef %9, ptr noundef %10, i32 noundef %9, ptr noundef %11, i32 noundef %12, ptr noundef nonnull %5)
  call void @llvm.lifetime.end.p0(i64 1, ptr nonnull %6) #29
  %14 = load i32, ptr %8, align 4, !tbaa !68
  %15 = load ptr, ptr %1, align 8, !tbaa !14
  %16 = zext i32 %14 to i64
  %17 = getelementptr inbounds nuw i32, ptr %15, i64 %16
  %18 = load i32, ptr %17, align 4, !tbaa !15
  %.not = icmp eq i32 %18, 0
  br i1 %.not, label %19, label %._crit_edge

._crit_edge:                                      ; preds = %4
  %.phi.trans.insert = getelementptr inbounds nuw i8, ptr %0, i64 148
  %.pre = load i32, ptr %.phi.trans.insert, align 4, !tbaa !69
  %.pre7 = add i32 %14, -1
  %.pre8 = zext i32 %.pre7 to i64
  br label %29

19:                                               ; preds = %4
  %20 = add i32 %14, -1
  %21 = zext i32 %20 to i64
  %22 = getelementptr inbounds nuw i32, ptr %15, i64 %21
  %23 = load i32, ptr %22, align 4, !tbaa !15
  %24 = getelementptr inbounds nuw i8, ptr %0, i64 148
  %25 = load i32, ptr %24, align 4, !tbaa !69
  %26 = xor i32 %25, -1
  %27 = and i32 %23, %26
  %28 = icmp ne i32 %27, 0
  br label %29

29:                                               ; preds = %._crit_edge, %19
  %.pre-phi9 = phi i64 [ %.pre8, %._crit_edge ], [ %21, %19 ]
  %30 = phi i32 [ %.pre, %._crit_edge ], [ %25, %19 ]
  %31 = phi i1 [ true, %._crit_edge ], [ %28, %19 ]
  %32 = getelementptr inbounds nuw i32, ptr %15, i64 %.pre-phi9
  %33 = load i32, ptr %32, align 4, !tbaa !15
  %34 = and i32 %33, %30
  store i32 %34, ptr %32, align 4, !tbaa !15
  call void @llvm.lifetime.end.p0(i64 4, ptr nonnull %5) #29
  ret i1 %31
}